; Function Attrs: mustprogress nounwind uwtable
define internal fastcc void @_ZN12_GLOBAL__N_19APIMisuseC2EPKN5clang4ento11CheckerBaseEPKc(ptr noundef nonnull align 8 dereferenceable(97) %0, ptr noundef %1, ptr noundef %2) unnamed_addr #0 align 2 {
  %.not.i = icmp eq ptr %2, null
  br i1 %.not.i, label %_ZN4llvm9StringRefC2EPKc.exit, label %4

4:                                                ; preds = %3
  %5 = tail call noundef i64 @strlen(ptr noundef nonnull dereferenceable(1) %2) #21
  br label %_ZN4llvm9StringRefC2EPKc.exit

_ZN4llvm9StringRefC2EPKc.exit:                    ; preds = %3, %4
  %6 = phi i64 [ %5, %4 ], [ 0, %3 ]
  %7 = load ptr, ptr @_ZN5clang4ento10categories14AppleAPIMisuseE, align 8
  %.not.i3 = icmp eq ptr %7, null
  br i1 %.not.i3, label %_ZN4llvm9StringRefC2EPKc.exit4, label %8

8:                                                ; preds = %_ZN4llvm9StringRefC2EPKc.exit
  %9 = tail call noundef i64 @strlen(ptr noundef nonnull dereferenceable(1) %7) #21
  br label %_ZN4llvm9StringRefC2EPKc.exit4

_ZN4llvm9StringRefC2EPKc.exit4:                   ; preds = %_ZN4llvm9StringRefC2EPKc.exit, %8
  %10 = phi i64 [ %9, %8 ], [ 0, %_ZN4llvm9StringRefC2EPKc.exit ]
  tail call void @_ZN5clang4ento7BugTypeC2EPKNS0_11CheckerBaseEN4llvm9StringRefES6_b(ptr noundef nonnull align 8 dereferenceable(97) %0, ptr noundef %1, ptr %2, i64 %6, ptr %7, i64 %10, i1 noundef zeroext false)
  store ptr getelementptr inbounds inrange(-16, 24) (i8, ptr @_ZTVN12_GLOBAL__N_19APIMisuseE, i64 16), ptr %0, align 8
  ret void
}